target datalayout = "e-m:e-p270:32:32-p271:32:32-p272:64:64-i64:64-i128:128-f80:128-n8:16:32:64-S128"
target triple = "x86_64-pc-linux-gnu"

; Function Attrs: mustprogress uwtable
define void @UCNV_TO_U_CALLBACK_ESCAPE_77(ptr noundef %0, ptr noundef %1, ptr noundef %2, i32 noundef %3, i32 noundef %4, ptr noundef %5) #1 {
  %7 = alloca ptr, align 8
  %8 = alloca ptr, align 8
  %9 = alloca ptr, align 8
  %10 = alloca i32, align 4
  %11 = alloca i32, align 4
  %12 = alloca ptr, align 8
  %13 = alloca [48 x i16], align 16
  %14 = alloca i32, align 4
  %15 = alloca i32, align 4
  %16 = alloca i32, align 4
  store ptr %0, ptr %7, align 8, !tbaa !3
  store ptr %1, ptr %8, align 8, !tbaa !3
  store ptr %2, ptr %9, align 8, !tbaa !15
  store i32 %3, ptr %10, align 4, !tbaa !9
  store i32 %4, ptr %11, align 4, !tbaa !11
  store ptr %5, ptr %12, align 8, !tbaa !3
  call void @llvm.lifetime.start.p0(i64 96, ptr %13) #5
  call void @llvm.lifetime.start.p0(i64 4, ptr %14) #5
  store i32 0, ptr %14, align 4, !tbaa !9
  call void @llvm.lifetime.start.p0(i64 4, ptr %15) #5
  store i32 0, ptr %15, align 4, !tbaa !9
  %17 = load i32, ptr %11, align 4, !tbaa !11
  %18 = icmp sgt i32 %17, 2
  br i1 %18, label %19, label %20

19:                                               ; preds = %6
  store i32 1, ptr %16, align 4
  br label %201

20:                                               ; preds = %6
  %21 = load ptr, ptr %7, align 8, !tbaa !3
  %22 = icmp eq ptr %21, null
  br i1 %22, label %23, label %54

23:                                               ; preds = %20
  br label %24

24:                                               ; preds = %28, %23
  %25 = load i32, ptr %15, align 4, !tbaa !9
  %26 = load i32, ptr %10, align 4, !tbaa !9
  %27 = icmp slt i32 %25, %26
  br i1 %27, label %28, label %53

28:                                               ; preds = %24
  %29 = load i32, ptr %14, align 4, !tbaa !9
  %30 = add nsw i32 %29, 1
  store i32 %30, ptr %14, align 4, !tbaa !9
  %31 = sext i32 %29 to i64
  %32 = getelementptr inbounds [48 x i16], ptr %13, i64 0, i64 %31
  store i16 37, ptr %32, align 2, !tbaa !23
  %33 = load i32, ptr %14, align 4, !tbaa !9
  %34 = add nsw i32 %33, 1
  store i32 %34, ptr %14, align 4, !tbaa !9
  %35 = sext i32 %33 to i64
  %36 = getelementptr inbounds [48 x i16], ptr %13, i64 0, i64 %35
  store i16 88, ptr %36, align 2, !tbaa !23
  %37 = getelementptr inbounds [48 x i16], ptr %13, i64 0, i64 0
  %38 = load i32, ptr %14, align 4, !tbaa !9
  %39 = sext i32 %38 to i64
  %40 = getelementptr inbounds i16, ptr %37, i64 %39
  %41 = load i32, ptr %14, align 4, !tbaa !9
  %42 = sub nsw i32 48, %41
  %43 = load ptr, ptr %9, align 8, !tbaa !15
  %44 = load i32, ptr %15, align 4, !tbaa !9
  %45 = add nsw i32 %44, 1
  store i32 %45, ptr %15, align 4, !tbaa !9
  %46 = sext i32 %44 to i64
  %47 = getelementptr inbounds i8, ptr %43, i64 %46
  %48 = load i8, ptr %47, align 1, !tbaa !17
  %49 = zext i8 %48 to i32
  %50 = call i32 @uprv_itou_77(ptr noundef %40, i32 noundef %42, i32 noundef %49, i32 noundef 16, i32 noundef 2)
  %51 = load i32, ptr %14, align 4, !tbaa !9
  %52 = add nsw i32 %51, %50
  store i32 %52, ptr %14, align 4, !tbaa !9
  br label %24, !llvm.loop !29

53:                                               ; preds = %24
  br label %195

54:                                               ; preds = %20
  %55 = load ptr, ptr %7, align 8, !tbaa !3
  %56 = load i8, ptr %55, align 1, !tbaa !17
  %57 = sext i8 %56 to i32
  switch i32 %57, label %163 [
    i32 68, label %58
    i32 88, label %93
    i32 67, label %132
  ]

58:                                               ; preds = %54
  br label %59

59:                                               ; preds = %63, %58
  %60 = load i32, ptr %15, align 4, !tbaa !9
  %61 = load i32, ptr %10, align 4, !tbaa !9
  %62 = icmp slt i32 %60, %61
  br i1 %62, label %63, label %92

63:                                               ; preds = %59
  %64 = load i32, ptr %14, align 4, !tbaa !9
  %65 = add nsw i32 %64, 1
  store i32 %65, ptr %14, align 4, !tbaa !9
  %66 = sext i32 %64 to i64
  %67 = getelementptr inbounds [48 x i16], ptr %13, i64 0, i64 %66
  store i16 38, ptr %67, align 2, !tbaa !23
  %68 = load i32, ptr %14, align 4, !tbaa !9
  %69 = add nsw i32 %68, 1
  store i32 %69, ptr %14, align 4, !tbaa !9
  %70 = sext i32 %68 to i64
  %71 = getelementptr inbounds [48 x i16], ptr %13, i64 0, i64 %70
  store i16 35, ptr %71, align 2, !tbaa !23
  %72 = getelementptr inbounds [48 x i16], ptr %13, i64 0, i64 0
  %73 = load i32, ptr %14, align 4, !tbaa !9
  %74 = sext i32 %73 to i64
  %75 = getelementptr inbounds i16, ptr %72, i64 %74
  %76 = load i32, ptr %14, align 4, !tbaa !9
  %77 = sub nsw i32 48, %76
  %78 = load ptr, ptr %9, align 8, !tbaa !15
  %79 = load i32, ptr %15, align 4, !tbaa !9
  %80 = add nsw i32 %79, 1
  store i32 %80, ptr %15, align 4, !tbaa !9
  %81 = sext i32 %79 to i64
  %82 = getelementptr inbounds i8, ptr %78, i64 %81
  %83 = load i8, ptr %82, align 1, !tbaa !17
  %84 = zext i8 %83 to i32
  %85 = call i32 @uprv_itou_77(ptr noundef %75, i32 noundef %77, i32 noundef %84, i32 noundef 10, i32 noundef 0)
  %86 = load i32, ptr %14, align 4, !tbaa !9
  %87 = add nsw i32 %86, %85
  store i32 %87, ptr %14, align 4, !tbaa !9
  %88 = load i32, ptr %14, align 4, !tbaa !9
  %89 = add nsw i32 %88, 1
  store i32 %89, ptr %14, align 4, !tbaa !9
  %90 = sext i32 %88 to i64
  %91 = getelementptr inbounds [48 x i16], ptr %13, i64 0, i64 %90
  store i16 59, ptr %91, align 2, !tbaa !23
  br label %59, !llvm.loop !30

92:                                               ; preds = %59
  br label %194

93:                                               ; preds = %54
  br label %94

94:                                               ; preds = %98, %93
  %95 = load i32, ptr %15, align 4, !tbaa !9
  %96 = load i32, ptr %10, align 4, !tbaa !9
  %97 = icmp slt i32 %95, %96
  br i1 %97, label %98, label %131

98:                                               ; preds = %94
  %99 = load i32, ptr %14, align 4, !tbaa !9
  %100 = add nsw i32 %99, 1
  store i32 %100, ptr %14, align 4, !tbaa !9
  %101 = sext i32 %99 to i64
  %102 = getelementptr inbounds [48 x i16], ptr %13, i64 0, i64 %101
  store i16 38, ptr %102, align 2, !tbaa !23
  %103 = load i32, ptr %14, align 4, !tbaa !9
  %104 = add nsw i32 %103, 1
  store i32 %104, ptr %14, align 4, !tbaa !9
  %105 = sext i32 %103 to i64
  %106 = getelementptr inbounds [48 x i16], ptr %13, i64 0, i64 %105
  store i16 35, ptr %106, align 2, !tbaa !23
  %107 = load i32, ptr %14, align 4, !tbaa !9
  %108 = add nsw i32 %107, 1
  store i32 %108, ptr %14, align 4, !tbaa !9
  %109 = sext i32 %107 to i64
  %110 = getelementptr inbounds [48 x i16], ptr %13, i64 0, i64 %109
  store i16 120, ptr %110, align 2, !tbaa !23
  %111 = getelementptr inbounds [48 x i16], ptr %13, i64 0, i64 0
  %112 = load i32, ptr %14, align 4, !tbaa !9
  %113 = sext i32 %112 to i64
  %114 = getelementptr inbounds i16, ptr %111, i64 %113
  %115 = load i32, ptr %14, align 4, !tbaa !9
  %116 = sub nsw i32 48, %115
  %117 = load ptr, ptr %9, align 8, !tbaa !15
  %118 = load i32, ptr %15, align 4, !tbaa !9
  %119 = add nsw i32 %118, 1
  store i32 %119, ptr %15, align 4, !tbaa !9
  %120 = sext i32 %118 to i64
  %121 = getelementptr inbounds i8, ptr %117, i64 %120
  %122 = load i8, ptr %121, align 1, !tbaa !17
  %123 = zext i8 %122 to i32
  %124 = call i32 @uprv_itou_77(ptr noundef %114, i32 noundef %116, i32 noundef %123, i32 noundef 16, i32 noundef 0)
  %125 = load i32, ptr %14, align 4, !tbaa !9
  %126 = add nsw i32 %125, %124
  store i32 %126, ptr %14, align 4, !tbaa !9
  %127 = load i32, ptr %14, align 4, !tbaa !9
  %128 = add nsw i32 %127, 1
  store i32 %128, ptr %14, align 4, !tbaa !9
  %129 = sext i32 %127 to i64
  %130 = getelementptr inbounds [48 x i16], ptr %13, i64 0, i64 %129
  store i16 59, ptr %130, align 2, !tbaa !23
  br label %94, !llvm.loop !31

131:                                              ; preds = %94
  br label %194

132:                                              ; preds = %54
  br label %133

133:                                              ; preds = %137, %132
  %134 = load i32, ptr %15, align 4, !tbaa !9
  %135 = load i32, ptr %10, align 4, !tbaa !9
  %136 = icmp slt i32 %134, %135
  br i1 %136, label %137, label %162

137:                                              ; preds = %133
  %138 = load i32, ptr %14, align 4, !tbaa !9
  %139 = add nsw i32 %138, 1
  store i32 %139, ptr %14, align 4, !tbaa !9
  %140 = sext i32 %138 to i64
  %141 = getelementptr inbounds [48 x i16], ptr %13, i64 0, i64 %140
  store i16 92, ptr %141, align 2, !tbaa !23
  %142 = load i32, ptr %14, align 4, !tbaa !9
  %143 = add nsw i32 %142, 1
  store i32 %143, ptr %14, align 4, !tbaa !9
  %144 = sext i32 %142 to i64
  %145 = getelementptr inbounds [48 x i16], ptr %13, i64 0, i64 %144
  store i16 120, ptr %145, align 2, !tbaa !23
  %146 = getelementptr inbounds [48 x i16], ptr %13, i64 0, i64 0
  %147 = load i32, ptr %14, align 4, !tbaa !9
  %148 = sext i32 %147 to i64
  %149 = getelementptr inbounds i16, ptr %146, i64 %148
  %150 = load i32, ptr %14, align 4, !tbaa !9
  %151 = sub nsw i32 48, %150
  %152 = load ptr, ptr %9, align 8, !tbaa !15
  %153 = load i32, ptr %15, align 4, !tbaa !9
  %154 = add nsw i32 %153, 1
  store i32 %154, ptr %15, align 4, !tbaa !9
  %155 = sext i32 %153 to i64
  %156 = getelementptr inbounds i8, ptr %152, i64 %155
  %157 = load i8, ptr %156, align 1, !tbaa !17
  %158 = zext i8 %157 to i32
  %159 = call i32 @uprv_itou_77(ptr noundef %149, i32 noundef %151, i32 noundef %158, i32 noundef 16, i32 noundef 2)
  %160 = load i32, ptr %14, align 4, !tbaa !9
  %161 = add nsw i32 %160, %159
  store i32 %161, ptr %14, align 4, !tbaa !9
  br label %133, !llvm.loop !32

162:                                              ; preds = %133
  br label %194

163:                                              ; preds = %54
  br label %164

164:                                              ; preds = %168, %163
  %165 = load i32, ptr %15, align 4, !tbaa !9
  %166 = load i32, ptr %10, align 4, !tbaa !9
  %167 = icmp slt i32 %165, %166
  br i1 %167, label %168, label %193

168:                                              ; preds = %164
  %169 = load i32, ptr %14, align 4, !tbaa !9
  %170 = add nsw i32 %169, 1
  store i32 %170, ptr %14, align 4, !tbaa !9
  %171 = sext i32 %169 to i64
  %172 = getelementptr inbounds [48 x i16], ptr %13, i64 0, i64 %171
  store i16 37, ptr %172, align 2, !tbaa !23
  %173 = load i32, ptr %14, align 4, !tbaa !9
  %174 = add nsw i32 %173, 1
  store i32 %174, ptr %14, align 4, !tbaa !9
  %175 = sext i32 %173 to i64
  %176 = getelementptr inbounds [48 x i16], ptr %13, i64 0, i64 %175
  store i16 88, ptr %176, align 2, !tbaa !23
  %177 = getelementptr inbounds [48 x i16], ptr %13, i64 0, i64 0
  %178 = load i32, ptr %14, align 4, !tbaa !9
  %179 = sext i32 %178 to i64
  %180 = getelementptr inbounds i16, ptr %177, i64 %179
  %181 = load i32, ptr %14, align 4, !tbaa !9
  %182 = sub nsw i32 48, %181
  %183 = load ptr, ptr %9, align 8, !tbaa !15
  %184 = load i32, ptr %15, align 4, !tbaa !9
  %185 = add nsw i32 %184, 1
  store i32 %185, ptr %15, align 4, !tbaa !9
  %186 = sext i32 %184 to i64
  %187 = getelementptr inbounds i8, ptr %183, i64 %186
  %188 = load i8, ptr %187, align 1, !tbaa !17
  %189 = zext i8 %188 to i32
  %190 = call i32 @uprv_itou_77(ptr noundef %180, i32 noundef %182, i32 noundef %189, i32 noundef 16, i32 noundef 2)
  %191 = load i32, ptr %14, align 4, !tbaa !9
  %192 = add nsw i32 %191, 2
  store i32 %192, ptr %14, align 4, !tbaa !9
  br label %164, !llvm.loop !33

193:                                              ; preds = %164
  br label %194

194:                                              ; preds = %193, %162, %131, %92
  br label %195

195:                                              ; preds = %194, %53
  %196 = load ptr, ptr %12, align 8, !tbaa !3
  store i32 0, ptr %196, align 4, !tbaa !13
  %197 = load ptr, ptr %8, align 8, !tbaa !3
  %198 = getelementptr inbounds [48 x i16], ptr %13, i64 0, i64 0
  %199 = load i32, ptr %14, align 4, !tbaa !9
  %200 = load ptr, ptr %12, align 8, !tbaa !3
  call void @ucnv_cbToUWriteUChars_77(ptr noundef %197, ptr noundef %198, i32 noundef %199, i32 noundef 0, ptr noundef %200)
  store i32 0, ptr %16, align 4
  br label %201

201:                                              ; preds = %195, %19
  call void @llvm.lifetime.end.p0(i64 4, ptr %15) #5
  call void @llvm.lifetime.end.p0(i64 4, ptr %14) #5
  call void @llvm.lifetime.end.p0(i64 96, ptr %13) #5
  %202 = load i32, ptr %16, align 4
  switch i32 %202, label %204 [
    i32 0, label %203
    i32 1, label %203
  ]

203:                                              ; preds = %201, %201
  ret void

204:                                              ; preds = %201
  unreachable
}