; Function Attrs: mustprogress uwtable
define void @UCNV_TO_U_CALLBACK_ESCAPE_77(ptr noundef readonly %0, ptr noundef %1, ptr noundef readonly captures(none) %2, i32 noundef %3, i32 noundef %4, ptr noundef %5) local_unnamed_addr #3 {
  %7 = alloca [48 x i16], align 16
  call void @llvm.lifetime.start.p0(i64 96, ptr nonnull %7) #6
  %8 = icmp sgt i32 %4, 2
  br i1 %8, label %92, label %9

9:                                                ; preds = %6
  %10 = icmp eq ptr %0, null
  br i1 %10, label %.preheader, label %26

.preheader:                                       ; preds = %9
  %11 = icmp sgt i32 %3, 0
  br i1 %11, label %.lr.ph84.preheader, label %.loopexit

.lr.ph84.preheader:                               ; preds = %.preheader
  %wide.trip.count117 = zext nneg i32 %3 to i64
  br label %.lr.ph84

.lr.ph84:                                         ; preds = %.lr.ph84.preheader, %.lr.ph84
  %indvars.iv114 = phi i64 [ 0, %.lr.ph84.preheader ], [ %indvars.iv.next115, %.lr.ph84 ]
  %.05482 = phi i32 [ 0, %.lr.ph84.preheader ], [ %25, %.lr.ph84 ]
  %12 = add nsw i32 %.05482, 1
  %13 = sext i32 %.05482 to i64
  %14 = getelementptr inbounds [48 x i16], ptr %7, i64 0, i64 %13
  store i16 37, ptr %14, align 2, !tbaa !17
  %15 = add nsw i32 %.05482, 2
  %16 = sext i32 %12 to i64
  %17 = getelementptr inbounds [48 x i16], ptr %7, i64 0, i64 %16
  store i16 88, ptr %17, align 2, !tbaa !17
  %18 = sext i32 %15 to i64
  %19 = getelementptr inbounds i16, ptr %7, i64 %18
  %20 = sub nsw i32 46, %.05482
  %indvars.iv.next115 = add nuw nsw i64 %indvars.iv114, 1
  %21 = getelementptr inbounds nuw i8, ptr %2, i64 %indvars.iv114
  %22 = load i8, ptr %21, align 1, !tbaa !7
  %23 = zext i8 %22 to i32
  %24 = call i32 @uprv_itou_77(ptr noundef nonnull %19, i32 noundef %20, i32 noundef %23, i32 noundef 16, i32 noundef 2)
  %25 = add nsw i32 %24, %15
  %exitcond118.not = icmp eq i64 %indvars.iv.next115, %wide.trip.count117
  br i1 %exitcond118.not, label %.loopexit, label %.lr.ph84, !llvm.loop !24

26:                                               ; preds = %9
  %27 = load i8, ptr %0, align 1, !tbaa !7
  %28 = icmp sgt i32 %3, 0
  switch i8 %27, label %.preheader60 [
    i8 68, label %.preheader62
    i8 88, label %.preheader64
    i8 67, label %.preheader66
  ]

.preheader66:                                     ; preds = %26
  br i1 %28, label %.lr.ph.preheader, label %.loopexit

.lr.ph.preheader:                                 ; preds = %.preheader66
  %wide.trip.count = zext nneg i32 %3 to i64
  br label %.lr.ph

.preheader64:                                     ; preds = %26
  br i1 %28, label %.lr.ph72.preheader, label %.loopexit

.lr.ph72.preheader:                               ; preds = %.preheader64
  %wide.trip.count98 = zext nneg i32 %3 to i64
  br label %.lr.ph72

.preheader62:                                     ; preds = %26
  br i1 %28, label %.lr.ph76.preheader, label %.loopexit

.lr.ph76.preheader:                               ; preds = %.preheader62
  %wide.trip.count103 = zext nneg i32 %3 to i64
  br label %.lr.ph76

.preheader60:                                     ; preds = %26
  br i1 %28, label %.lr.ph80.preheader, label %.loopexit

.lr.ph80.preheader:                               ; preds = %.preheader60
  %wide.trip.count112 = zext nneg i32 %3 to i64
  br label %.lr.ph80

.lr.ph76:                                         ; preds = %.lr.ph76.preheader, %.lr.ph76
  %indvars.iv100 = phi i64 [ 0, %.lr.ph76.preheader ], [ %indvars.iv.next101, %.lr.ph76 ]
  %.25674 = phi i32 [ 0, %.lr.ph76.preheader ], [ %43, %.lr.ph76 ]
  %29 = add nsw i32 %.25674, 1
  %30 = sext i32 %.25674 to i64
  %31 = getelementptr inbounds [48 x i16], ptr %7, i64 0, i64 %30
  store i16 38, ptr %31, align 2, !tbaa !17
  %32 = add nsw i32 %.25674, 2
  %33 = sext i32 %29 to i64
  %34 = getelementptr inbounds [48 x i16], ptr %7, i64 0, i64 %33
  store i16 35, ptr %34, align 2, !tbaa !17
  %35 = sext i32 %32 to i64
  %36 = getelementptr inbounds i16, ptr %7, i64 %35
  %37 = sub nsw i32 46, %.25674
  %indvars.iv.next101 = add nuw nsw i64 %indvars.iv100, 1
  %38 = getelementptr inbounds nuw i8, ptr %2, i64 %indvars.iv100
  %39 = load i8, ptr %38, align 1, !tbaa !7
  %40 = zext i8 %39 to i32
  %41 = call i32 @uprv_itou_77(ptr noundef nonnull %36, i32 noundef %37, i32 noundef %40, i32 noundef 10, i32 noundef 0)
  %42 = add nsw i32 %41, %32
  %43 = add nsw i32 %42, 1
  %44 = sext i32 %42 to i64
  %45 = getelementptr inbounds [48 x i16], ptr %7, i64 0, i64 %44
  store i16 59, ptr %45, align 2, !tbaa !17
  %exitcond104.not = icmp eq i64 %indvars.iv.next101, %wide.trip.count103
  br i1 %exitcond104.not, label %.loopexit, label %.lr.ph76, !llvm.loop !25

.lr.ph72:                                         ; preds = %.lr.ph72.preheader, %.lr.ph72
  %indvars.iv95 = phi i64 [ 0, %.lr.ph72.preheader ], [ %indvars.iv.next96, %.lr.ph72 ]
  %.35770 = phi i32 [ 0, %.lr.ph72.preheader ], [ %63, %.lr.ph72 ]
  %46 = add nsw i32 %.35770, 1
  %47 = sext i32 %.35770 to i64
  %48 = getelementptr inbounds [48 x i16], ptr %7, i64 0, i64 %47
  store i16 38, ptr %48, align 2, !tbaa !17
  %49 = add nsw i32 %.35770, 2
  %50 = sext i32 %46 to i64
  %51 = getelementptr inbounds [48 x i16], ptr %7, i64 0, i64 %50
  store i16 35, ptr %51, align 2, !tbaa !17
  %52 = add nsw i32 %.35770, 3
  %53 = sext i32 %49 to i64
  %54 = getelementptr inbounds [48 x i16], ptr %7, i64 0, i64 %53
  store i16 120, ptr %54, align 2, !tbaa !17
  %55 = sext i32 %52 to i64
  %56 = getelementptr inbounds i16, ptr %7, i64 %55
  %57 = sub nsw i32 45, %.35770
  %indvars.iv.next96 = add nuw nsw i64 %indvars.iv95, 1
  %58 = getelementptr inbounds nuw i8, ptr %2, i64 %indvars.iv95
  %59 = load i8, ptr %58, align 1, !tbaa !7
  %60 = zext i8 %59 to i32
  %61 = call i32 @uprv_itou_77(ptr noundef nonnull %56, i32 noundef %57, i32 noundef %60, i32 noundef 16, i32 noundef 0)
  %62 = add nsw i32 %61, %52
  %63 = add nsw i32 %62, 1
  %64 = sext i32 %62 to i64
  %65 = getelementptr inbounds [48 x i16], ptr %7, i64 0, i64 %64
  store i16 59, ptr %65, align 2, !tbaa !17
  %exitcond99.not = icmp eq i64 %indvars.iv.next96, %wide.trip.count98
  br i1 %exitcond99.not, label %.loopexit, label %.lr.ph72, !llvm.loop !26

.lr.ph:                                           ; preds = %.lr.ph.preheader, %.lr.ph
  %indvars.iv = phi i64 [ 0, %.lr.ph.preheader ], [ %indvars.iv.next, %.lr.ph ]
  %.45868 = phi i32 [ 0, %.lr.ph.preheader ], [ %79, %.lr.ph ]
  %66 = add nsw i32 %.45868, 1
  %67 = sext i32 %.45868 to i64
  %68 = getelementptr inbounds [48 x i16], ptr %7, i64 0, i64 %67
  store i16 92, ptr %68, align 2, !tbaa !17
  %69 = add nsw i32 %.45868, 2
  %70 = sext i32 %66 to i64
  %71 = getelementptr inbounds [48 x i16], ptr %7, i64 0, i64 %70
  store i16 120, ptr %71, align 2, !tbaa !17
  %72 = sext i32 %69 to i64
  %73 = getelementptr inbounds i16, ptr %7, i64 %72
  %74 = sub nsw i32 46, %.45868
  %indvars.iv.next = add nuw nsw i64 %indvars.iv, 1
  %75 = getelementptr inbounds nuw i8, ptr %2, i64 %indvars.iv
  %76 = load i8, ptr %75, align 1, !tbaa !7
  %77 = zext i8 %76 to i32
  %78 = call i32 @uprv_itou_77(ptr noundef nonnull %73, i32 noundef %74, i32 noundef %77, i32 noundef 16, i32 noundef 2)
  %79 = add nsw i32 %78, %69
  %exitcond.not = icmp eq i64 %indvars.iv.next, %wide.trip.count
  br i1 %exitcond.not, label %.loopexit, label %.lr.ph, !llvm.loop !27

.lr.ph80:                                         ; preds = %.lr.ph80.preheader, %.lr.ph80
  %indvars.iv107 = phi i64 [ 0, %.lr.ph80.preheader ], [ %indvars.iv.next108, %.lr.ph80 ]
  %indvars.iv105 = phi i64 [ 0, %.lr.ph80.preheader ], [ %indvars.iv.next106, %.lr.ph80 ]
  %80 = or disjoint i64 %indvars.iv107, 1
  %81 = getelementptr inbounds nuw [48 x i16], ptr %7, i64 0, i64 %indvars.iv107
  store i16 37, ptr %81, align 8, !tbaa !17
  %82 = or disjoint i64 %indvars.iv107, 2
  %83 = getelementptr inbounds nuw [48 x i16], ptr %7, i64 0, i64 %80
  store i16 88, ptr %83, align 2, !tbaa !17
  %84 = getelementptr inbounds nuw i16, ptr %7, i64 %82
  %indvars.iv.next106 = add nuw nsw i64 %indvars.iv105, 1
  %85 = getelementptr inbounds nuw i8, ptr %2, i64 %indvars.iv105
  %86 = load i8, ptr %85, align 1, !tbaa !7
  %87 = zext i8 %86 to i32
  %88 = trunc i64 %indvars.iv107 to i32
  %89 = sub i32 46, %88
  %90 = call i32 @uprv_itou_77(ptr noundef nonnull %84, i32 noundef %89, i32 noundef %87, i32 noundef 16, i32 noundef 2)
  %indvars.iv.next108 = add nuw nsw i64 %indvars.iv107, 4
  %exitcond113.not = icmp eq i64 %indvars.iv.next106, %wide.trip.count112
  br i1 %exitcond113.not, label %.loopexit.loopexit86, label %.lr.ph80, !llvm.loop !28

.loopexit.loopexit86:                             ; preds = %.lr.ph80
  %91 = trunc nuw i64 %indvars.iv.next108 to i32
  br label %.loopexit

.loopexit:                                        ; preds = %.lr.ph, %.lr.ph72, %.lr.ph76, %.lr.ph84, %.loopexit.loopexit86, %.preheader66, %.preheader64, %.preheader62, %.preheader60, %.preheader
  %.155 = phi i32 [ 0, %.preheader ], [ 0, %.preheader60 ], [ 0, %.preheader62 ], [ 0, %.preheader64 ], [ 0, %.preheader66 ], [ %91, %.loopexit.loopexit86 ], [ %25, %.lr.ph84 ], [ %43, %.lr.ph76 ], [ %63, %.lr.ph72 ], [ %79, %.lr.ph ]
  store i32 0, ptr %5, align 4, !tbaa !3
  call void @ucnv_cbToUWriteUChars_77(ptr noundef %1, ptr noundef nonnull %7, i32 noundef %.155, i32 noundef 0, ptr noundef nonnull %5)
  br label %92

92:                                               ; preds = %6, %.loopexit
  call void @llvm.lifetime.end.p0(i64 96, ptr nonnull %7) #6
  ret void
}